; Function Attrs: mustprogress uwtable
define internal void @_ZN12_GLOBAL__N_115CxxPrintVisitorIZNS_9CxxModule14write_eval_defERN5Yosys10Functional6WriterEEUlNS3_4NodeEE_E5stateES6_NS2_5RTLIL8IdStringESA_(ptr noundef nonnull readonly align 8 captures(none) dereferenceable(40) %0, ptr readnone captures(none) %1, i32 %2, ptr noundef readonly captures(none) %3, ptr readnone captures(none) %4) unnamed_addr #5 align 2 personality ptr @__gxx_personality_v0 {
  %6 = alloca %"class.std::__cxx11::basic_string", align 8
  %7 = alloca %"struct.Yosys::RTLIL::IdString", align 4
  call void @llvm.lifetime.start.p0(i64 32, ptr nonnull %6) #29
  %8 = getelementptr inbounds nuw i8, ptr %0, i64 32
  %9 = load ptr, ptr %8, align 8, !tbaa !499
  %10 = load i32, ptr %3, align 4, !tbaa !32
  %.not.i.i = icmp eq i32 %10, 0
  br i1 %.not.i.i, label %_ZN5Yosys5RTLIL8IdStringC2ERKS1_.exit, label %11

11:                                               ; preds = %5
  %12 = sext i32 %10 to i64
  %13 = load ptr, ptr @_ZN5Yosys5RTLIL8IdString24global_refcount_storage_E, align 8, !tbaa !53
  %14 = getelementptr inbounds nuw i32, ptr %13, i64 %12
  %15 = load i32, ptr %14, align 4, !tbaa !56
  %16 = add nsw i32 %15, 1
  store i32 %16, ptr %14, align 4, !tbaa !56
  br label %_ZN5Yosys5RTLIL8IdStringC2ERKS1_.exit

_ZN5Yosys5RTLIL8IdStringC2ERKS1_.exit:            ; preds = %5, %11
  store i32 %10, ptr %7, align 4, !tbaa !32
  invoke fastcc void @_ZN12_GLOBAL__N_19CxxStructixB5cxx11EN5Yosys5RTLIL8IdStringE(ptr dead_on_unwind noalias writable align 8 %6, ptr noundef nonnull align 8 dereferenceable(216) %9, ptr noundef %7)
          to label %17 unwind label %42

17:                                               ; preds = %_ZN5Yosys5RTLIL8IdStringC2ERKS1_.exit
  %18 = getelementptr inbounds nuw i8, ptr %0, i64 8
  %.val = load ptr, ptr %18, align 8, !tbaa !489
  invoke fastcc void @_ZN12_GLOBAL__N_115CxxPrintVisitorIZNS_9CxxModule14write_eval_defERN5Yosys10Functional6WriterEEUlNS3_4NodeEE_E5printIJNSt7__cxx1112basic_stringIcSt11char_traitsIcESaIcEEEEEEvPKcDpOT_(ptr %.val, ptr noundef nonnull @.str.190, ptr noundef nonnull align 8 dereferenceable(32) %6)
          to label %19 unwind label %44

19:                                               ; preds = %17
  %20 = load ptr, ptr %6, align 8, !tbaa !15
  %21 = getelementptr inbounds nuw i8, ptr %6, i64 16
  %22 = icmp eq ptr %20, %21
  br i1 %22, label %_ZNKSt7__cxx1112basic_stringIcSt11char_traitsIcESaIcEE11_M_is_localEv.exit.thread.i.i, label %_ZNKSt7__cxx1112basic_stringIcSt11char_traitsIcESaIcEE11_M_is_localEv.exit.i.i

_ZNKSt7__cxx1112basic_stringIcSt11char_traitsIcESaIcEE11_M_is_localEv.exit.thread.i.i: ; preds = %19
  %23 = getelementptr inbounds nuw i8, ptr %6, i64 8
  %24 = load i64, ptr %23, align 8, !tbaa !20
  %25 = icmp ult i64 %24, 16
  call void @llvm.assume(i1 %25)
  br label %_ZNSt7__cxx1112basic_stringIcSt11char_traitsIcESaIcEED2Ev.exit

_ZNKSt7__cxx1112basic_stringIcSt11char_traitsIcESaIcEE11_M_is_localEv.exit.i.i: ; preds = %19
  %26 = load i64, ptr %21, align 8, !tbaa !21
  %27 = add i64 %26, 1
  call void @_ZdlPvm(ptr noundef %20, i64 noundef %27) #30
  br label %_ZNSt7__cxx1112basic_stringIcSt11char_traitsIcESaIcEED2Ev.exit

_ZNSt7__cxx1112basic_stringIcSt11char_traitsIcESaIcEED2Ev.exit: ; preds = %_ZNKSt7__cxx1112basic_stringIcSt11char_traitsIcESaIcEE11_M_is_localEv.exit.thread.i.i, %_ZNKSt7__cxx1112basic_stringIcSt11char_traitsIcESaIcEE11_M_is_localEv.exit.i.i
  %28 = load i8, ptr @_ZN5Yosys5RTLIL8IdString17destruct_guard_okE, align 1, !tbaa !57, !range !59, !noundef !60
  %29 = trunc nuw i8 %28 to i1
  %30 = icmp ne i32 %10, 0
  %or.cond.i.i = and i1 %30, %29
  br i1 %or.cond.i.i, label %31, label %_ZN5Yosys5RTLIL8IdStringD2Ev.exit

31:                                               ; preds = %_ZNSt7__cxx1112basic_stringIcSt11char_traitsIcESaIcEED2Ev.exit
  %32 = sext i32 %10 to i64
  %33 = load ptr, ptr @_ZN5Yosys5RTLIL8IdString24global_refcount_storage_E, align 8, !tbaa !53
  %34 = getelementptr inbounds nuw i32, ptr %33, i64 %32
  %35 = load i32, ptr %34, align 4, !tbaa !56
  %36 = add nsw i32 %35, -1
  store i32 %36, ptr %34, align 4, !tbaa !56
  %37 = icmp sgt i32 %35, 1
  br i1 %37, label %_ZN5Yosys5RTLIL8IdStringD2Ev.exit, label %38

38:                                               ; preds = %31
  invoke void @_ZN5Yosys5RTLIL8IdString14free_referenceEi(i32 noundef %10)
          to label %_ZN5Yosys5RTLIL8IdStringD2Ev.exit unwind label %39

39:                                               ; preds = %38
  %40 = landingpad { ptr, i32 }
          catch ptr null
  %41 = extractvalue { ptr, i32 } %40, 0
  call void @__clang_call_terminate(ptr %41) #33
  unreachable

_ZN5Yosys5RTLIL8IdStringD2Ev.exit:                ; preds = %_ZNSt7__cxx1112basic_stringIcSt11char_traitsIcESaIcEED2Ev.exit, %31, %38
  call void @llvm.lifetime.end.p0(i64 32, ptr nonnull %6) #29
  ret void

42:                                               ; preds = %_ZN5Yosys5RTLIL8IdStringC2ERKS1_.exit
  %43 = landingpad { ptr, i32 }
          cleanup
  br label %_ZNSt7__cxx1112basic_stringIcSt11char_traitsIcESaIcEED2Ev.exit6

44:                                               ; preds = %17
  %45 = landingpad { ptr, i32 }
          cleanup
  %46 = load ptr, ptr %6, align 8, !tbaa !15
  %47 = getelementptr inbounds nuw i8, ptr %6, i64 16
  %48 = icmp eq ptr %46, %47
  br i1 %48, label %_ZNKSt7__cxx1112basic_stringIcSt11char_traitsIcESaIcEE11_M_is_localEv.exit.thread.i.i5, label %_ZNKSt7__cxx1112basic_stringIcSt11char_traitsIcESaIcEE11_M_is_localEv.exit.i.i4

_ZNKSt7__cxx1112basic_stringIcSt11char_traitsIcESaIcEE11_M_is_localEv.exit.thread.i.i5: ; preds = %44
  %49 = getelementptr inbounds nuw i8, ptr %6, i64 8
  %50 = load i64, ptr %49, align 8, !tbaa !20
  %51 = icmp ult i64 %50, 16
  call void @llvm.assume(i1 %51)
  br label %_ZNSt7__cxx1112basic_stringIcSt11char_traitsIcESaIcEED2Ev.exit6

_ZNKSt7__cxx1112basic_stringIcSt11char_traitsIcESaIcEE11_M_is_localEv.exit.i.i4: ; preds = %44
  %52 = load i64, ptr %47, align 8, !tbaa !21
  %53 = add i64 %52, 1
  call void @_ZdlPvm(ptr noundef %46, i64 noundef %53) #30
  br label %_ZNSt7__cxx1112basic_stringIcSt11char_traitsIcESaIcEED2Ev.exit6

_ZNSt7__cxx1112basic_stringIcSt11char_traitsIcESaIcEED2Ev.exit6: ; preds = %_ZNKSt7__cxx1112basic_stringIcSt11char_traitsIcESaIcEE11_M_is_localEv.exit.i.i4, %_ZNKSt7__cxx1112basic_stringIcSt11char_traitsIcESaIcEE11_M_is_localEv.exit.thread.i.i5, %42
  %.pn = phi { ptr, i32 } [ %43, %42 ], [ %45, %_ZNKSt7__cxx1112basic_stringIcSt11char_traitsIcESaIcEE11_M_is_localEv.exit.thread.i.i5 ], [ %45, %_ZNKSt7__cxx1112basic_stringIcSt11char_traitsIcESaIcEE11_M_is_localEv.exit.i.i4 ]
  call void @_ZN5Yosys5RTLIL8IdStringD2Ev(ptr noundef nonnull align 4 dereferenceable(4) %7) #29
  call void @llvm.lifetime.end.p0(i64 32, ptr nonnull %6) #29
  resume { ptr, i32 } %.pn
}